target datalayout = "e-m:e-p270:32:32-p271:32:32-p272:64:64-i64:64-i128:128-f80:128-n8:16:32:64-S128"
target triple = "x86_64-pc-linux-gnu"

%"class.cv::utils::trace::details::Region" = type <{ ptr, i32, [4 x i8] }>

; Function Attrs: mustprogress uwtable
define noundef i32 @_ZN2cv8Stitcher6stitchERKNS_11_InputArrayES3_RKNS_12_OutputArrayE(ptr noundef nonnull align 8 dereferenceable(560) %0, ptr noundef nonnull align 8 dereferenceable(24) %1, ptr noundef nonnull align 8 dereferenceable(24) %2, ptr noundef nonnull align 8 dereferenceable(24) %3) #4 align 2 personality ptr @__gxx_personality_v0 {
  %5 = alloca i32, align 4
  %6 = alloca ptr, align 8
  %7 = alloca ptr, align 8
  %8 = alloca ptr, align 8
  %9 = alloca ptr, align 8
  %10 = alloca %"class.cv::utils::trace::details::Region", align 8
  %11 = alloca i32, align 4
  %12 = alloca ptr, align 8
  %13 = alloca i32, align 4
  %14 = alloca i32, align 4
  store ptr %0, ptr %6, align 8, !tbaa !95
  store ptr %1, ptr %7, align 8, !tbaa !178
  store ptr %2, ptr %8, align 8, !tbaa !178
  store ptr %3, ptr %9, align 8, !tbaa !207
  %15 = load ptr, ptr %6, align 8
  call void @llvm.lifetime.start.p0(i64 16, ptr %10) #3
  call void @_ZN2cv5utils5trace7details6RegionC1ERKNS3_21LocationStaticStorageE(ptr noundef nonnull align 8 dereferenceable(12) %10, ptr noundef nonnull align 8 dereferenceable(32) @_ZZN2cv8Stitcher6stitchERKNS_11_InputArrayES3_RKNS_12_OutputArrayEE25__cv_trace_location_fn387)
  call void @llvm.lifetime.start.p0(i64 4, ptr %11) #3
  %16 = load ptr, ptr %7, align 8, !tbaa !178
  %17 = load ptr, ptr %8, align 8, !tbaa !178
  %18 = invoke noundef i32 @_ZN2cv8Stitcher17estimateTransformERKNS_11_InputArrayES3_(ptr noundef nonnull align 8 dereferenceable(560) %15, ptr noundef nonnull align 8 dereferenceable(24) %16, ptr noundef nonnull align 8 dereferenceable(24) %17)
          to label %19 unwind label %24

19:                                               ; preds = %4
  store i32 %18, ptr %11, align 4, !tbaa !180
  %20 = load i32, ptr %11, align 4, !tbaa !180
  %21 = icmp ne i32 %20, 0
  br i1 %21, label %22, label %28

22:                                               ; preds = %19
  %23 = load i32, ptr %11, align 4, !tbaa !180
  store i32 %23, ptr %5, align 4
  store i32 1, ptr %14, align 4
  br label %32

24:                                               ; preds = %28, %4
  %25 = landingpad { ptr, i32 }
          cleanup
  %26 = extractvalue { ptr, i32 } %25, 0
  store ptr %26, ptr %12, align 8
  %27 = extractvalue { ptr, i32 } %25, 1
  store i32 %27, ptr %13, align 4
  call void @llvm.lifetime.end.p0(i64 4, ptr %11) #3
  call void @_ZN2cv5utils5trace7details6RegionD2Ev(ptr noundef nonnull align 8 dereferenceable(12) %10) #3
  call void @llvm.lifetime.end.p0(i64 16, ptr %10) #3
  br label %34

28:                                               ; preds = %19
  %29 = load ptr, ptr %9, align 8, !tbaa !207
  %30 = invoke noundef i32 @_ZN2cv8Stitcher15composePanoramaERKNS_12_OutputArrayE(ptr noundef nonnull align 8 dereferenceable(560) %15, ptr noundef nonnull align 8 dereferenceable(24) %29)
          to label %31 unwind label %24

31:                                               ; preds = %28
  store i32 %30, ptr %5, align 4
  store i32 1, ptr %14, align 4
  br label %32

32:                                               ; preds = %31, %22
  call void @llvm.lifetime.end.p0(i64 4, ptr %11) #3
  call void @_ZN2cv5utils5trace7details6RegionD2Ev(ptr noundef nonnull align 8 dereferenceable(12) %10) #3
  call void @llvm.lifetime.end.p0(i64 16, ptr %10) #3
  %33 = load i32, ptr %5, align 4
  ret i32 %33

34:                                               ; preds = %24
  %35 = load ptr, ptr %12, align 8
  %36 = load i32, ptr %13, align 4
  %37 = insertvalue { ptr, i32 } poison, ptr %35, 0
  %38 = insertvalue { ptr, i32 } %37, i32 %36, 1
  resume { ptr, i32 } %38
}