; Function Attrs: mustprogress uwtable
define noundef range(i32 0, 4) i32 @_ZN2cv8Stitcher6stitchERKNS_11_InputArrayES3_RKNS_12_OutputArrayE(ptr noundef nonnull align 8 dereferenceable(560) %0, ptr noundef nonnull align 8 dereferenceable(24) %1, ptr noundef nonnull align 8 dereferenceable(24) %2, ptr noundef nonnull align 8 dereferenceable(24) %3) local_unnamed_addr #3 align 2 personality ptr @__gxx_personality_v0 {
  %5 = alloca %"class.cv::utils::trace::details::Region", align 8
  call void @llvm.lifetime.start.p0(i64 16, ptr nonnull %5) #26
  call void @_ZN2cv5utils5trace7details6RegionC1ERKNS3_21LocationStaticStorageE(ptr noundef nonnull align 8 dereferenceable(12) %5, ptr noundef nonnull align 8 dereferenceable(32) @_ZZN2cv8Stitcher6stitchERKNS_11_InputArrayES3_RKNS_12_OutputArrayEE25__cv_trace_location_fn387)
  %6 = invoke noundef i32 @_ZN2cv8Stitcher17estimateTransformERKNS_11_InputArrayES3_(ptr noundef nonnull align 8 dereferenceable(560) %0, ptr noundef nonnull align 8 dereferenceable(24) %1, ptr noundef nonnull align 8 dereferenceable(24) %2)
          to label %7 unwind label %8

7:                                                ; preds = %4
  %.not = icmp eq i32 %6, 0
  br i1 %.not, label %10, label %12

8:                                                ; preds = %10, %4
  %9 = landingpad { ptr, i32 }
          cleanup
  call void @_ZN2cv5utils5trace7details6RegionD2Ev(ptr noundef nonnull align 8 dereferenceable(12) %5) #26
  call void @llvm.lifetime.end.p0(i64 16, ptr nonnull %5) #26
  resume { ptr, i32 } %9

10:                                               ; preds = %7
  %11 = invoke noundef i32 @_ZN2cv8Stitcher15composePanoramaERKNS_12_OutputArrayE(ptr noundef nonnull align 8 dereferenceable(560) %0, ptr noundef nonnull align 8 dereferenceable(24) %3)
          to label %12 unwind label %8

12:                                               ; preds = %10, %7
  %13 = getelementptr inbounds nuw i8, ptr %5, i64 8
  %14 = load i32, ptr %13, align 8, !tbaa !204
  %.not.i = icmp eq i32 %14, 0
  br i1 %.not.i, label %_ZN2cv5utils5trace7details6RegionD2Ev.exit, label %15

15:                                               ; preds = %12
  invoke void @_ZN2cv5utils5trace7details6Region7destroyEv(ptr noundef nonnull align 8 dereferenceable(12) %5)
          to label %_ZN2cv5utils5trace7details6RegionD2Ev.exit unwind label %16

16:                                               ; preds = %15
  %17 = landingpad { ptr, i32 }
          catch ptr null
  %18 = extractvalue { ptr, i32 } %17, 0
  call void @__clang_call_terminate(ptr %18) #29
  unreachable

_ZN2cv5utils5trace7details6RegionD2Ev.exit:       ; preds = %12, %15
  call void @llvm.lifetime.end.p0(i64 16, ptr nonnull %5) #26
  ret i32 %6
}